#include <math.h>
#include <stdio.h>
#include <stdlib.h>
#include <string.h>

int n,t,cnt;
void f(int left,int last){
	if(left<last) {if(left==1) cnt++;return;}
	for (int i=last;i<=left;i++) if(left%i==0) f(left/i,i);
}
int main(){
	scanf("%d",&t);
	while (t--){
		scanf("%d",&n);
		cnt=0;f(n,2);
		printf("%d\n",cnt);
	}
	return 0;
}
