; ModuleID = 'source-C-CXX/0/1692.c'
source_filename = "source-C-CXX/0/1692.c"
target datalayout = "e-m:e-p270:32:32-p271:32:32-p272:64:64-i64:64-f80:128-n8:16:32:64-S128"
target triple = "x86_64-pc-linux-gnu"

@cnt = dso_local local_unnamed_addr global i32 0, align 4
@.str = private unnamed_addr constant [3 x i8] c"%d\00", align 1
@t = dso_local global i32 0, align 4
@n = dso_local global i32 0, align 4
@.str.1 = private unnamed_addr constant [4 x i8] c"%d\0A\00", align 1

; Function Attrs: nofree nosync nounwind sspstrong uwtable
define dso_local void @f(i32 %0, i32 %1) local_unnamed_addr #0 {
  %3 = icmp slt i32 %0, %1
  br i1 %3, label %4, label %9

4:                                                ; preds = %2
  %5 = icmp eq i32 %0, 1
  br i1 %5, label %6, label %18

6:                                                ; preds = %4
  %7 = load i32, i32* @cnt, align 4, !tbaa !5
  %8 = add nsw i32 %7, 1
  store i32 %8, i32* @cnt, align 4, !tbaa !5
  br label %18

9:                                                ; preds = %2, %15
  %10 = phi i32 [ %16, %15 ], [ %1, %2 ]
  %11 = srem i32 %0, %10
  %12 = sdiv i32 %0, %10
  %13 = icmp eq i32 %11, 0
  br i1 %13, label %14, label %15

14:                                               ; preds = %9
  tail call void @f(i32 %12, i32 %10)
  br label %15

15:                                               ; preds = %9, %14
  %16 = add i32 %10, 1
  %17 = icmp eq i32 %10, %0
  br i1 %17, label %18, label %9, !llvm.loop !9

18:                                               ; preds = %15, %4, %6
  ret void
}

; Function Attrs: nofree nounwind sspstrong uwtable
define dso_local i32 @main() local_unnamed_addr #1 {
  %1 = tail call i32 (i8*, ...) @__isoc99_scanf(i8* getelementptr inbounds ([3 x i8], [3 x i8]* @.str, i64 0, i64 0), i32* nonnull @t)
  %2 = load i32, i32* @t, align 4, !tbaa !5
  %3 = add nsw i32 %2, -1
  store i32 %3, i32* @t, align 4, !tbaa !5
  %4 = icmp eq i32 %2, 0
  br i1 %4, label %13, label %5

5:                                                ; preds = %0, %5
  %6 = tail call i32 (i8*, ...) @__isoc99_scanf(i8* getelementptr inbounds ([3 x i8], [3 x i8]* @.str, i64 0, i64 0), i32* nonnull @n)
  store i32 0, i32* @cnt, align 4, !tbaa !5
  %7 = load i32, i32* @n, align 4, !tbaa !5
  tail call void @f(i32 %7, i32 2)
  %8 = load i32, i32* @cnt, align 4, !tbaa !5
  %9 = tail call i32 (i8*, ...) @printf(i8* nonnull dereferenceable(1) getelementptr inbounds ([4 x i8], [4 x i8]* @.str.1, i64 0, i64 0), i32 %8)
  %10 = load i32, i32* @t, align 4, !tbaa !5
  %11 = add nsw i32 %10, -1
  store i32 %11, i32* @t, align 4, !tbaa !5
  %12 = icmp eq i32 %10, 0
  br i1 %12, label %13, label %5, !llvm.loop !11

13:                                               ; preds = %5, %0
  ret i32 0
}

; Function Attrs: nofree nounwind
declare noundef i32 @__isoc99_scanf(i8* nocapture noundef readonly, ...) local_unnamed_addr #2

; Function Attrs: nofree nounwind
declare noundef i32 @printf(i8* nocapture noundef readonly, ...) local_unnamed_addr #2


!llvm.module.flags = !{!0, !1, !2, !3}
!llvm.ident = !{!4}

!0 = !{i32 1, !"wchar_size", i32 4}
!1 = !{i32 7, !"PIC Level", i32 2}
!2 = !{i32 7, !"PIE Level", i32 2}
!3 = !{i32 7, !"uwtable", i32 1}
!4 = !{!"clang version 13.0.0"}
!5 = !{!6, !6, i64 0}
!6 = !{!"int", !7, i64 0}
!7 = !{!"omnipotent char", !8, i64 0}
!8 = !{!"Simple C/C++ TBAA"}
!9 = distinct !{!9, !10}
!10 = !{!"llvm.loop.mustprogress"}
!11 = distinct !{!11, !10}
